	.file	"testParallel.c"
	.text
	.globl	main
	.type	main, @function
main:
.LFB0:
	.cfi_startproc
	endbr64
	pushq	%rbp
	.cfi_def_cfa_offset 16
	.cfi_offset 6, -16
	movq	%rsp, %rbp
	.cfi_def_cfa_register 6
	subq	$80, %rsp
	movq	%fs:40, %rax
	movq	%rax, -8(%rbp)
	xorl	%eax, %eax
	leaq	-64(%rbp), %rax
	movq	%rax, -80(%rbp)
	leaq	-80(%rbp), %rax
	movl	$0, %ecx
	movl	$0, %edx
	movq	%rax, %rsi
	leaq	main._omp_fn.0(%rip), %rax
	movq	%rax, %rdi
	call	GOMP_parallel@PLT
	leaq	-32(%rbp), %rax
	movq	%rax, -80(%rbp)
	leaq	-80(%rbp), %rax
	movl	$0, %ecx
	movl	$0, %edx
	movq	%rax, %rsi
	leaq	main._omp_fn.1(%rip), %rax
	movq	%rax, %rdi
	call	GOMP_parallel@PLT
	leaq	-64(%rbp), %rax
	movq	%rax, -80(%rbp)
	leaq	-32(%rbp), %rax
	movq	%rax, -72(%rbp)
	leaq	-80(%rbp), %rax
	movl	$0, %ecx
	movl	$0, %edx
	movq	%rax, %rsi
	leaq	main._omp_fn.2(%rip), %rax
	movq	%rax, %rdi
	call	GOMP_parallel@PLT
	movl	$0, %eax
	movq	-8(%rbp), %rdx
	subq	%fs:40, %rdx
	je	.L3
	call	__stack_chk_fail@PLT
.L3:
	leave
	.cfi_def_cfa 7, 8
	ret
	.cfi_endproc
.LFE0:
	.size	main, .-main
	.type	main._omp_fn.0, @function
main._omp_fn.0:
.LFB1:
	.cfi_startproc
	endbr64
	pushq	%rbp
	.cfi_def_cfa_offset 16
	.cfi_offset 6, -16
	movq	%rsp, %rbp
	.cfi_def_cfa_register 6
	movq	%rdi, -24(%rbp)
	movl	$0, -4(%rbp)
	nop
.L6:
	cmpl	$4, -4(%rbp)
	jg	.L8
	movq	-24(%rbp), %rax
	movq	(%rax), %rax
	movl	-4(%rbp), %edx
	movslq	%edx, %rdx
	movl	$1, (%rax,%rdx,4)
	addl	$1, -4(%rbp)
	jmp	.L6
.L8:
	nop
	popq	%rbp
	.cfi_def_cfa 7, 8
	ret
	.cfi_endproc
.LFE1:
	.size	main._omp_fn.0, .-main._omp_fn.0
	.type	main._omp_fn.1, @function
main._omp_fn.1:
.LFB2:
	.cfi_startproc
	endbr64
	pushq	%rbp
	.cfi_def_cfa_offset 16
	.cfi_offset 6, -16
	movq	%rsp, %rbp
	.cfi_def_cfa_register 6
	movq	%rdi, -24(%rbp)
	movl	$0, -4(%rbp)
	nop
.L11:
	cmpl	$4, -4(%rbp)
	jg	.L13
	movq	-24(%rbp), %rax
	movq	(%rax), %rax
	movl	-4(%rbp), %edx
	movslq	%edx, %rdx
	movl	$1, (%rax,%rdx,4)
	addl	$1, -4(%rbp)
	jmp	.L11
.L13:
	nop
	popq	%rbp
	.cfi_def_cfa 7, 8
	ret
	.cfi_endproc
.LFE2:
	.size	main._omp_fn.1, .-main._omp_fn.1
	.section	.rodata
.LC0:
	.string	"%d and %d\n"
	.text
	.type	main._omp_fn.2, @function
main._omp_fn.2:
.LFB3:
	.cfi_startproc
	endbr64
	pushq	%rbp
	.cfi_def_cfa_offset 16
	.cfi_offset 6, -16
	movq	%rsp, %rbp
	.cfi_def_cfa_register 6
	subq	$32, %rsp
	movq	%rdi, -24(%rbp)
	movl	$0, -4(%rbp)
	nop
.L16:
	cmpl	$4, -4(%rbp)
	jg	.L18
	movq	-24(%rbp), %rax
	movq	8(%rax), %rax
	movl	-4(%rbp), %edx
	movslq	%edx, %rdx
	movl	(%rax,%rdx,4), %edx
	movq	-24(%rbp), %rax
	movq	(%rax), %rax
	movl	-4(%rbp), %ecx
	movslq	%ecx, %rcx
	movl	(%rax,%rcx,4), %eax
	movl	%eax, %esi
	leaq	.LC0(%rip), %rax
	movq	%rax, %rdi
	movl	$0, %eax
	call	printf@PLT
	addl	$1, -4(%rbp)
	jmp	.L16
.L18:
	nop
	leave
	.cfi_def_cfa 7, 8
	ret
	.cfi_endproc
.LFE3:
	.size	main._omp_fn.2, .-main._omp_fn.2
	.ident	"GCC: (Ubuntu 11.3.0-1ubuntu1~22.04.1) 11.3.0"
	.section	.note.GNU-stack,"",@progbits
	.section	.note.gnu.property,"a"
	.align 8
	.long	1f - 0f
	.long	4f - 1f
	.long	5
0:
	.string	"GNU"
1:
	.align 8
	.long	0xc0000002
	.long	3f - 2f
2:
	.long	0x3
3:
	.align 8
4:
